; Function Attrs: mustprogress nounwind uwtable
define void @_ZN10llama_fileD2Ev(ptr noundef nonnull align 8 captures(none) dereferenceable(8) %0) unnamed_addr #1 align 2 personality ptr @__gxx_personality_v0 {
  %2 = load ptr, ptr %0, align 8, !tbaa !6
  %.not.i = icmp eq ptr %2, null
  br i1 %.not.i, label %_ZNSt10unique_ptrIN10llama_file4implESt14default_deleteIS1_EED2Ev.exit, label %3

3:                                                ; preds = %1
  %4 = load ptr, ptr %2, align 8, !tbaa !11
  %.not.i.i.i = icmp eq ptr %4, null
  br i1 %.not.i.i.i, label %_ZNKSt14default_deleteIN10llama_file4implEEclEPS1_.exit.i, label %5

5:                                                ; preds = %3
  %6 = tail call i32 @fclose(ptr noundef nonnull %4)
  br label %_ZNKSt14default_deleteIN10llama_file4implEEclEPS1_.exit.i

_ZNKSt14default_deleteIN10llama_file4implEEclEPS1_.exit.i: ; preds = %5, %3
  tail call void @_ZdlPvm(ptr noundef nonnull %2, i64 noundef 16) #23
  br label %_ZNSt10unique_ptrIN10llama_file4implESt14default_deleteIS1_EED2Ev.exit

_ZNSt10unique_ptrIN10llama_file4implESt14default_deleteIS1_EED2Ev.exit: ; preds = %1, %_ZNKSt14default_deleteIN10llama_file4implEEclEPS1_.exit.i
  store ptr null, ptr %0, align 8, !tbaa !6
  ret void
}